target datalayout = "e-m:e-p270:32:32-p271:32:32-p272:64:64-i64:64-i128:128-f80:128-n8:16:32:64-S128"
target triple = "x86_64-pc-linux-gnu"

%"struct.llvm::MaybeAlign" = type { %"class.std::optional" }
%"class.std::optional" = type { %"struct.std::_Optional_base" }
%"struct.std::_Optional_base" = type { %"struct.std::_Optional_payload" }
%"struct.std::_Optional_payload" = type { %"struct.std::_Optional_payload_base" }
%"struct.std::_Optional_payload_base" = type { %"union.std::_Optional_payload_base<llvm::Align>::_Storage", i8 }
%"union.std::_Optional_payload_base<llvm::Align>::_Storage" = type { %"struct.std::_Optional_payload_base<llvm::Align>::_Empty_byte" }
%"struct.std::_Optional_payload_base<llvm::Align>::_Empty_byte" = type { i8 }
%"struct.llvm::Align" = type { i8 }
%"class.std::__cxx11::basic_string" = type { %"struct.std::__cxx11::basic_string<char>::_Alloc_hider", i64, %union.anon }
%"struct.std::__cxx11::basic_string<char>::_Alloc_hider" = type { ptr }
%union.anon = type { i64, [8 x i8] }
%"class.llvm::Triple" = type { %"class.std::__cxx11::basic_string", i32, i32, i32, i32, i32, i32 }
%"class.llvm::MachineFunction" = type <{ ptr, ptr, ptr, ptr, ptr, ptr, ptr, ptr, ptr, ptr, ptr, ptr, %"class.std::vector.49", i32, [4 x i8], %"class.llvm::BumpPtrAllocatorImpl", %"class.llvm::Recycler", %"class.llvm::ArrayRecycler", %"class.llvm::Recycler.65", %"class.llvm::iplist", i32, %"struct.llvm::Align", i8, i8, i8, %"class.llvm::MachineFunctionProperties", %"class.std::unique_ptr.66", %"class.std::vector.74", %"class.std::vector.79", %"class.std::vector.79", %"class.std::vector.84", %"class.llvm::DenseMap.89", %"class.llvm::DenseMap.92", %"class.llvm::DenseMap.95", %"class.std::vector.98", i8, i8, i8, i8, i8, i8, [2 x i8], i32, i32, %"class.std::vector.103", %"class.std::vector.108", %"class.std::vector.108", i32, [4 x i8], ptr, ptr, %"class.llvm::DenseMap.113", %"class.llvm::SmallVector.116", i32, [4 x i8], %"class.llvm::SmallVector.121", %"class.llvm::DenseMap.126", i8, [7 x i8] }>
%"class.std::vector.49" = type { %"struct.std::_Vector_base.50" }
%"struct.std::_Vector_base.50" = type { %"struct.std::_Vector_base<llvm::MachineBasicBlock *, std::allocator<llvm::MachineBasicBlock *>>::_Vector_impl" }
%"struct.std::_Vector_base<llvm::MachineBasicBlock *, std::allocator<llvm::MachineBasicBlock *>>::_Vector_impl" = type { %"struct.std::_Vector_base<llvm::MachineBasicBlock *, std::allocator<llvm::MachineBasicBlock *>>::_Vector_impl_data" }
%"struct.std::_Vector_base<llvm::MachineBasicBlock *, std::allocator<llvm::MachineBasicBlock *>>::_Vector_impl_data" = type { ptr, ptr, ptr }
%"class.llvm::BumpPtrAllocatorImpl" = type { ptr, ptr, %"class.llvm::SmallVector", %"class.llvm::SmallVector.55", i64, i64 }
%"class.llvm::SmallVector" = type { %"class.llvm::SmallVectorImpl", %"struct.llvm::SmallVectorStorage" }
%"class.llvm::SmallVectorImpl" = type { %"class.llvm::SmallVectorTemplateBase" }
%"class.llvm::SmallVectorTemplateBase" = type { %"class.llvm::SmallVectorTemplateCommon" }
%"class.llvm::SmallVectorTemplateCommon" = type { %"class.llvm::SmallVectorBase" }
%"class.llvm::SmallVectorBase" = type { ptr, i32, i32 }
%"struct.llvm::SmallVectorStorage" = type { [32 x i8] }
%"class.llvm::SmallVector.55" = type { %"class.llvm::SmallVectorImpl.56" }
%"class.llvm::SmallVectorImpl.56" = type { %"class.llvm::SmallVectorTemplateBase.57" }
%"class.llvm::SmallVectorTemplateBase.57" = type { %"class.llvm::SmallVectorTemplateCommon.58" }
%"class.llvm::SmallVectorTemplateCommon.58" = type { %"class.llvm::SmallVectorBase" }
%"class.llvm::Recycler" = type { ptr }
%"class.llvm::ArrayRecycler" = type { %"class.llvm::SmallVector.60" }
%"class.llvm::SmallVector.60" = type { %"class.llvm::SmallVectorImpl.61", %"struct.llvm::SmallVectorStorage.64" }
%"class.llvm::SmallVectorImpl.61" = type { %"class.llvm::SmallVectorTemplateBase.62" }
%"class.llvm::SmallVectorTemplateBase.62" = type { %"class.llvm::SmallVectorTemplateCommon.63" }
%"class.llvm::SmallVectorTemplateCommon.63" = type { %"class.llvm::SmallVectorBase" }
%"struct.llvm::SmallVectorStorage.64" = type { [64 x i8] }
%"class.llvm::Recycler.65" = type { ptr }
%"class.llvm::iplist" = type { %"class.llvm::iplist_impl" }
%"class.llvm::iplist_impl" = type { %"class.llvm::simple_ilist" }
%"class.llvm::simple_ilist" = type { %"class.llvm::ilist_sentinel" }
%"class.llvm::ilist_sentinel" = type { %"class.llvm::ilist_node_impl" }
%"class.llvm::ilist_node_impl" = type { %"class.llvm::ilist_node_base" }
%"class.llvm::ilist_node_base" = type { %"class.llvm::ilist_detail::node_base_prevnext" }
%"class.llvm::ilist_detail::node_base_prevnext" = type { ptr, ptr }
%"class.llvm::MachineFunctionProperties" = type { %"class.std::bitset" }
%"class.std::bitset" = type { %"struct.std::_Base_bitset" }
%"struct.std::_Base_bitset" = type { i64 }
%"class.std::unique_ptr.66" = type { %"struct.std::__uniq_ptr_data.67" }
%"struct.std::__uniq_ptr_data.67" = type { %"class.std::__uniq_ptr_impl.68" }
%"class.std::__uniq_ptr_impl.68" = type { %"class.std::tuple.69" }
%"class.std::tuple.69" = type { %"struct.std::_Tuple_impl.70" }
%"struct.std::_Tuple_impl.70" = type { %"struct.std::_Head_base.73" }
%"struct.std::_Head_base.73" = type { ptr }
%"class.std::vector.74" = type { %"struct.std::_Vector_base.75" }
%"struct.std::_Vector_base.75" = type { %"struct.std::_Vector_base<llvm::MCCFIInstruction, std::allocator<llvm::MCCFIInstruction>>::_Vector_impl" }
%"struct.std::_Vector_base<llvm::MCCFIInstruction, std::allocator<llvm::MCCFIInstruction>>::_Vector_impl" = type { %"struct.std::_Vector_base<llvm::MCCFIInstruction, std::allocator<llvm::MCCFIInstruction>>::_Vector_impl_data" }
%"struct.std::_Vector_base<llvm::MCCFIInstruction, std::allocator<llvm::MCCFIInstruction>>::_Vector_impl_data" = type { ptr, ptr, ptr }
%"class.std::vector.79" = type { %"struct.std::_Vector_base.80" }
%"struct.std::_Vector_base.80" = type { %"struct.std::_Vector_base<llvm::MCSymbol *, std::allocator<llvm::MCSymbol *>>::_Vector_impl" }
%"struct.std::_Vector_base<llvm::MCSymbol *, std::allocator<llvm::MCSymbol *>>::_Vector_impl" = type { %"struct.std::_Vector_base<llvm::MCSymbol *, std::allocator<llvm::MCSymbol *>>::_Vector_impl_data" }
%"struct.std::_Vector_base<llvm::MCSymbol *, std::allocator<llvm::MCSymbol *>>::_Vector_impl_data" = type { ptr, ptr, ptr }
%"class.std::vector.84" = type { %"struct.std::_Vector_base.85" }
%"struct.std::_Vector_base.85" = type { %"struct.std::_Vector_base<llvm::LandingPadInfo, std::allocator<llvm::LandingPadInfo>>::_Vector_impl" }
%"struct.std::_Vector_base<llvm::LandingPadInfo, std::allocator<llvm::LandingPadInfo>>::_Vector_impl" = type { %"struct.std::_Vector_base<llvm::LandingPadInfo, std::allocator<llvm::LandingPadInfo>>::_Vector_impl_data" }
%"struct.std::_Vector_base<llvm::LandingPadInfo, std::allocator<llvm::LandingPadInfo>>::_Vector_impl_data" = type { ptr, ptr, ptr }
%"class.llvm::DenseMap.89" = type <{ ptr, i32, i32, i32, [4 x i8] }>
%"class.llvm::DenseMap.92" = type <{ ptr, i32, i32, i32, [4 x i8] }>
%"class.llvm::DenseMap.95" = type <{ ptr, i32, i32, i32, [4 x i8] }>
%"class.std::vector.98" = type { %"struct.std::_Vector_base.99" }
%"struct.std::_Vector_base.99" = type { %"struct.std::_Vector_base<std::pair<llvm::MCSymbol *, llvm::MDNode *>, std::allocator<std::pair<llvm::MCSymbol *, llvm::MDNode *>>>::_Vector_impl" }
%"struct.std::_Vector_base<std::pair<llvm::MCSymbol *, llvm::MDNode *>, std::allocator<std::pair<llvm::MCSymbol *, llvm::MDNode *>>>::_Vector_impl" = type { %"struct.std::_Vector_base<std::pair<llvm::MCSymbol *, llvm::MDNode *>, std::allocator<std::pair<llvm::MCSymbol *, llvm::MDNode *>>>::_Vector_impl_data" }
%"struct.std::_Vector_base<std::pair<llvm::MCSymbol *, llvm::MDNode *>, std::allocator<std::pair<llvm::MCSymbol *, llvm::MDNode *>>>::_Vector_impl_data" = type { ptr, ptr, ptr }
%"class.std::vector.103" = type { %"struct.std::_Vector_base.104" }
%"struct.std::_Vector_base.104" = type { %"struct.std::_Vector_base<const llvm::GlobalValue *, std::allocator<const llvm::GlobalValue *>>::_Vector_impl" }
%"struct.std::_Vector_base<const llvm::GlobalValue *, std::allocator<const llvm::GlobalValue *>>::_Vector_impl" = type { %"struct.std::_Vector_base<const llvm::GlobalValue *, std::allocator<const llvm::GlobalValue *>>::_Vector_impl_data" }
%"struct.std::_Vector_base<const llvm::GlobalValue *, std::allocator<const llvm::GlobalValue *>>::_Vector_impl_data" = type { ptr, ptr, ptr }
%"class.std::vector.108" = type { %"struct.std::_Vector_base.109" }
%"struct.std::_Vector_base.109" = type { %"struct.std::_Vector_base<unsigned int, std::allocator<unsigned int>>::_Vector_impl" }
%"struct.std::_Vector_base<unsigned int, std::allocator<unsigned int>>::_Vector_impl" = type { %"struct.std::_Vector_base<unsigned int, std::allocator<unsigned int>>::_Vector_impl_data" }
%"struct.std::_Vector_base<unsigned int, std::allocator<unsigned int>>::_Vector_impl_data" = type { ptr, ptr, ptr }
%"class.llvm::DenseMap.113" = type <{ ptr, i32, i32, i32, [4 x i8] }>
%"class.llvm::SmallVector.116" = type { %"class.llvm::SmallVectorImpl.117", %"struct.llvm::SmallVectorStorage.120" }
%"class.llvm::SmallVectorImpl.117" = type { %"class.llvm::SmallVectorTemplateBase.118" }
%"class.llvm::SmallVectorTemplateBase.118" = type { %"class.llvm::SmallVectorTemplateCommon.119" }
%"class.llvm::SmallVectorTemplateCommon.119" = type { %"class.llvm::SmallVectorBase" }
%"struct.llvm::SmallVectorStorage.120" = type { [128 x i8] }
%"class.llvm::SmallVector.121" = type { %"class.llvm::SmallVectorImpl.122", %"struct.llvm::SmallVectorStorage.125" }
%"class.llvm::SmallVectorImpl.122" = type { %"class.llvm::SmallVectorTemplateBase.123" }
%"class.llvm::SmallVectorTemplateBase.123" = type { %"class.llvm::SmallVectorTemplateCommon.124" }
%"class.llvm::SmallVectorTemplateCommon.124" = type { %"class.llvm::SmallVectorBase" }
%"struct.llvm::SmallVectorStorage.125" = type { [160 x i8] }
%"class.llvm::DenseMap.126" = type <{ ptr, i32, i32, i32, [4 x i8] }>
%"class.llvm::TargetMachine" = type { ptr, ptr, %"class.llvm::DataLayout", %"class.llvm::Triple", %"class.std::__cxx11::basic_string", %"class.std::__cxx11::basic_string", i32, i32, i64, i32, %"class.std::unique_ptr.201", %"class.std::unique_ptr.209", %"class.std::unique_ptr.217", %"class.std::unique_ptr.225", i8, [7 x i8], %"class.std::optional.233", %"class.llvm::TargetOptions" }
%"class.llvm::DataLayout" = type { i8, i32, i32, i32, %"struct.llvm::MaybeAlign", %"struct.llvm::MaybeAlign", i32, i32, %"class.llvm::SmallVector.176", %"class.llvm::SmallVector.182", %"class.llvm::SmallVector.187", %"class.llvm::SmallVector.189", %"class.llvm::SmallVector.191", %"class.std::__cxx11::basic_string", %"struct.llvm::Align", %"struct.llvm::Align", ptr, %"class.llvm::SmallVector.196" }
%"class.llvm::SmallVector.176" = type { %"class.llvm::SmallVectorImpl.177", %"struct.llvm::SmallVectorStorage.181" }
%"class.llvm::SmallVectorImpl.177" = type { %"class.llvm::SmallVectorTemplateBase.178" }
%"class.llvm::SmallVectorTemplateBase.178" = type { %"class.llvm::SmallVectorTemplateCommon.179" }
%"class.llvm::SmallVectorTemplateCommon.179" = type { %"class.llvm::SmallVectorBase.180" }
%"class.llvm::SmallVectorBase.180" = type { ptr, i64, i64 }
%"struct.llvm::SmallVectorStorage.181" = type { [8 x i8] }
%"class.llvm::SmallVector.182" = type { %"class.llvm::SmallVectorImpl.183", %"struct.llvm::SmallVectorStorage.186" }
%"class.llvm::SmallVectorImpl.183" = type { %"class.llvm::SmallVectorTemplateBase.184" }
%"class.llvm::SmallVectorTemplateBase.184" = type { %"class.llvm::SmallVectorTemplateCommon.185" }
%"class.llvm::SmallVectorTemplateCommon.185" = type { %"class.llvm::SmallVectorBase" }
%"struct.llvm::SmallVectorStorage.186" = type { [48 x i8] }
%"class.llvm::SmallVector.187" = type { %"class.llvm::SmallVectorImpl.183", %"struct.llvm::SmallVectorStorage.188" }
%"struct.llvm::SmallVectorStorage.188" = type { [32 x i8] }
%"class.llvm::SmallVector.189" = type { %"class.llvm::SmallVectorImpl.183", %"struct.llvm::SmallVectorStorage.190" }
%"struct.llvm::SmallVectorStorage.190" = type { [80 x i8] }
%"class.llvm::SmallVector.191" = type { %"class.llvm::SmallVectorImpl.192", %"struct.llvm::SmallVectorStorage.195" }
%"class.llvm::SmallVectorImpl.192" = type { %"class.llvm::SmallVectorTemplateBase.193" }
%"class.llvm::SmallVectorTemplateBase.193" = type { %"class.llvm::SmallVectorTemplateCommon.194" }
%"class.llvm::SmallVectorTemplateCommon.194" = type { %"class.llvm::SmallVectorBase" }
%"struct.llvm::SmallVectorStorage.195" = type { [128 x i8] }
%"class.llvm::SmallVector.196" = type { %"class.llvm::SmallVectorImpl.197", %"struct.llvm::SmallVectorStorage.200" }
%"class.llvm::SmallVectorImpl.197" = type { %"class.llvm::SmallVectorTemplateBase.198" }
%"class.llvm::SmallVectorTemplateBase.198" = type { %"class.llvm::SmallVectorTemplateCommon.199" }
%"class.llvm::SmallVectorTemplateCommon.199" = type { %"class.llvm::SmallVectorBase" }
%"struct.llvm::SmallVectorStorage.200" = type { [32 x i8] }
%"class.std::unique_ptr.201" = type { %"struct.std::__uniq_ptr_data.202" }
%"struct.std::__uniq_ptr_data.202" = type { %"class.std::__uniq_ptr_impl.203" }
%"class.std::__uniq_ptr_impl.203" = type { %"class.std::tuple.204" }
%"class.std::tuple.204" = type { %"struct.std::_Tuple_impl.205" }
%"struct.std::_Tuple_impl.205" = type { %"struct.std::_Head_base.208" }
%"struct.std::_Head_base.208" = type { ptr }
%"class.std::unique_ptr.209" = type { %"struct.std::__uniq_ptr_data.210" }
%"struct.std::__uniq_ptr_data.210" = type { %"class.std::__uniq_ptr_impl.211" }
%"class.std::__uniq_ptr_impl.211" = type { %"class.std::tuple.212" }
%"class.std::tuple.212" = type { %"struct.std::_Tuple_impl.213" }
%"struct.std::_Tuple_impl.213" = type { %"struct.std::_Head_base.216" }
%"struct.std::_Head_base.216" = type { ptr }
%"class.std::unique_ptr.217" = type { %"struct.std::__uniq_ptr_data.218" }
%"struct.std::__uniq_ptr_data.218" = type { %"class.std::__uniq_ptr_impl.219" }
%"class.std::__uniq_ptr_impl.219" = type { %"class.std::tuple.220" }
%"class.std::tuple.220" = type { %"struct.std::_Tuple_impl.221" }
%"struct.std::_Tuple_impl.221" = type { %"struct.std::_Head_base.224" }
%"struct.std::_Head_base.224" = type { ptr }
%"class.std::unique_ptr.225" = type { %"struct.std::__uniq_ptr_data.226" }
%"struct.std::__uniq_ptr_data.226" = type { %"class.std::__uniq_ptr_impl.227" }
%"class.std::__uniq_ptr_impl.227" = type { %"class.std::tuple.228" }
%"class.std::tuple.228" = type { %"struct.std::_Tuple_impl.229" }
%"struct.std::_Tuple_impl.229" = type { %"struct.std::_Head_base.232" }
%"struct.std::_Head_base.232" = type { ptr }
%"class.std::optional.233" = type { %"struct.std::_Optional_base.234" }
%"struct.std::_Optional_base.234" = type { %"struct.std::_Optional_payload.236" }
%"struct.std::_Optional_payload.236" = type { %"struct.std::_Optional_payload.base.240", [7 x i8] }
%"struct.std::_Optional_payload.base.240" = type { %"struct.std::_Optional_payload_base.base.239" }
%"struct.std::_Optional_payload_base.base.239" = type <{ %"union.std::_Optional_payload_base<llvm::PGOOptions>::_Storage", i8 }>
%"union.std::_Optional_payload_base<llvm::PGOOptions>::_Storage" = type { %"struct.llvm::PGOOptions" }
%"struct.llvm::PGOOptions" = type { %"class.std::__cxx11::basic_string", %"class.std::__cxx11::basic_string", %"class.std::__cxx11::basic_string", %"class.std::__cxx11::basic_string", i32, i32, i32, i8, i8, i8, %"class.llvm::IntrusiveRefCntPtr" }
%"class.llvm::IntrusiveRefCntPtr" = type { ptr }
%"class.llvm::TargetOptions" = type { %"struct.std::pair", i16, i32, i32, i32, i32, %"class.std::shared_ptr", i16, %"class.std::__cxx11::basic_string", i32, i32, i32, i32, i32, i32, %"struct.llvm::DenormalMode", %"struct.llvm::DenormalMode", i32, %"class.llvm::MCTargetOptions", %"class.std::__cxx11::basic_string" }
%"struct.std::pair" = type { i32, i32 }
%"class.std::shared_ptr" = type { %"class.std::__shared_ptr" }
%"class.std::__shared_ptr" = type { ptr, %"class.std::__shared_count" }
%"class.std::__shared_count" = type { ptr }
%"struct.llvm::DenormalMode" = type { i8, i8 }
%"class.llvm::MCTargetOptions" = type <{ i16, i8, i8, i8, i8, [2 x i8], i32, i32, i32, i32, %"class.std::__cxx11::basic_string", %"class.std::__cxx11::basic_string", %"class.std::__cxx11::basic_string", %"class.std::__cxx11::basic_string", ptr, %"class.llvm::ArrayRef.243", %"class.std::vector.244", i8, [7 x i8] }>
%"class.llvm::ArrayRef.243" = type { ptr, i64 }
%"class.std::vector.244" = type { %"struct.std::_Vector_base.245" }
%"struct.std::_Vector_base.245" = type { %"struct.std::_Vector_base<std::__cxx11::basic_string<char>, std::allocator<std::__cxx11::basic_string<char>>>::_Vector_impl" }
%"struct.std::_Vector_base<std::__cxx11::basic_string<char>, std::allocator<std::__cxx11::basic_string<char>>>::_Vector_impl" = type { %"struct.std::_Vector_base<std::__cxx11::basic_string<char>, std::allocator<std::__cxx11::basic_string<char>>>::_Vector_impl_data" }
%"struct.std::_Vector_base<std::__cxx11::basic_string<char>, std::allocator<std::__cxx11::basic_string<char>>>::_Vector_impl_data" = type { ptr, ptr, ptr }
%"class.llvm::StringRef" = type { ptr, i64 }
%"class.llvm::MCAsmInfo" = type <{ ptr, i32, i32, i8, i8, i8, i8, i8, i8, [2 x i8], i32, i32, i8, i8, i8, [5 x i8], ptr, %"class.llvm::StringRef", i8, i8, i8, [5 x i8], ptr, i8, i8, i8, [5 x i8], %"class.llvm::StringRef", %"class.llvm::StringRef", %"class.llvm::StringRef", ptr, ptr, ptr, ptr, ptr, i32, i8, i8, i8, i8, i8, i8, i8, i8, i8, i8, [2 x i8], ptr, i8, [7 x i8], ptr, ptr, ptr, ptr, i32, [4 x i8], ptr, ptr, ptr, ptr, i8, [7 x i8], ptr, ptr, ptr, ptr, ptr, ptr, i8, i8, i8, i8, i32, ptr, i8, i8, [2 x i8], i32, i8, i8, i8, i8, i8, i8, i8, i8, ptr, ptr, i8, i8, [2 x i8], i32, i32, i32, i32, i32, i8, [3 x i8], i32, i8, [3 x i8], i32, i8, i8, i8, i8, i8, i8, i8, i8, i8, [7 x i8], %"class.std::vector.74", %"struct.std::pair", i8, i8, i8, i8, i32, i8, i8, i8, i8, [4 x i8] }>

; Function Attrs: mustprogress nounwind uwtable
define linkonce_odr hidden noundef nonnull align 8 dereferenceable(8) ptr @_ZNSt10_Head_baseILm0EPKN4llvm9MCAsmInfoELb0EE7_M_headERKS4_(ptr noundef nonnull align 8 dereferenceable(8) %0) #1 comdat align 2 {
  %2 = alloca ptr, align 8
  store ptr %0, ptr %2, align 8
  %3 = load ptr, ptr %2, align 8
  %4 = getelementptr inbounds nuw %"struct.std::_Head_base.208", ptr %3, i32 0, i32 0
  ret ptr %4
}

; Function Attrs: mustprogress nounwind uwtable
define linkonce_odr hidden noundef nonnull align 8 dereferenceable(8) ptr @_ZNSt11_Tuple_implILm0EJPKN4llvm9MCAsmInfoESt14default_deleteIS2_EEE7_M_headERKS6_(ptr noundef nonnull align 8 dereferenceable(8) %0) #1 comdat align 2 {
  %2 = alloca ptr, align 8
  store ptr %0, ptr %2, align 8
  %3 = load ptr, ptr %2, align 8
  %4 = call noundef nonnull align 8 dereferenceable(8) ptr @_ZNSt10_Head_baseILm0EPKN4llvm9MCAsmInfoELb0EE7_M_headERKS4_(ptr noundef nonnull align 8 dereferenceable(8) %3) #13
  ret ptr %4
}

; Function Attrs: mustprogress nounwind uwtable
define linkonce_odr noundef nonnull align 8 dereferenceable(8) ptr @_ZSt12__get_helperILm0EPKN4llvm9MCAsmInfoEJSt14default_deleteIS2_EEERKT0_RKSt11_Tuple_implIXT_EJS6_DpT1_EE(ptr noundef nonnull align 8 dereferenceable(8) %0) #1 comdat {
  %2 = alloca ptr, align 8
  store ptr %0, ptr %2, align 8
  %3 = load ptr, ptr %2, align 8
  %4 = call noundef nonnull align 8 dereferenceable(8) ptr @_ZNSt11_Tuple_implILm0EJPKN4llvm9MCAsmInfoESt14default_deleteIS2_EEE7_M_headERKS6_(ptr noundef nonnull align 8 dereferenceable(8) %3) #13
  ret ptr %4
}

; Function Attrs: mustprogress nounwind uwtable
define linkonce_odr noundef nonnull align 8 dereferenceable(8) ptr @_ZSt3getILm0EJPKN4llvm9MCAsmInfoESt14default_deleteIS2_EEERKNSt13tuple_elementIXT_ESt5tupleIJDpT0_EEE4typeERKSA_(ptr noundef nonnull align 8 dereferenceable(8) %0) #1 comdat {
  %2 = alloca ptr, align 8
  store ptr %0, ptr %2, align 8
  %3 = load ptr, ptr %2, align 8
  %4 = call noundef nonnull align 8 dereferenceable(8) ptr @_ZSt12__get_helperILm0EPKN4llvm9MCAsmInfoEJSt14default_deleteIS2_EEERKT0_RKSt11_Tuple_implIXT_EJS6_DpT1_EE(ptr noundef nonnull align 8 dereferenceable(8) %3) #13
  ret ptr %4
}

; Function Attrs: mustprogress nounwind uwtable
define linkonce_odr hidden noundef ptr @_ZNKSt15__uniq_ptr_implIKN4llvm9MCAsmInfoESt14default_deleteIS2_EE6_M_ptrEv(ptr noundef nonnull align 8 dereferenceable(8) %0) #1 comdat align 2 {
  %2 = alloca ptr, align 8
  store ptr %0, ptr %2, align 8
  %3 = load ptr, ptr %2, align 8
  %4 = getelementptr inbounds nuw %"class.std::__uniq_ptr_impl.203", ptr %3, i32 0, i32 0
  %5 = call noundef nonnull align 8 dereferenceable(8) ptr @_ZSt3getILm0EJPKN4llvm9MCAsmInfoESt14default_deleteIS2_EEERKNSt13tuple_elementIXT_ESt5tupleIJDpT0_EEE4typeERKSA_(ptr noundef nonnull align 8 dereferenceable(8) %4) #13
  %6 = load ptr, ptr %5, align 8
  ret ptr %6
}

; Function Attrs: mustprogress nounwind uwtable
define linkonce_odr hidden noundef ptr @_ZNKSt10unique_ptrIKN4llvm9MCAsmInfoESt14default_deleteIS2_EE3getEv(ptr noundef nonnull align 8 dereferenceable(8) %0) #1 comdat align 2 {
  %2 = alloca ptr, align 8
  store ptr %0, ptr %2, align 8
  %3 = load ptr, ptr %2, align 8
  %4 = getelementptr inbounds nuw %"class.std::unique_ptr.201", ptr %3, i32 0, i32 0
  %5 = call noundef ptr @_ZNKSt15__uniq_ptr_implIKN4llvm9MCAsmInfoESt14default_deleteIS2_EE6_M_ptrEv(ptr noundef nonnull align 8 dereferenceable(8) %4) #13
  ret ptr %5
}

; Function Attrs: mustprogress nounwind uwtable
define linkonce_odr hidden noundef zeroext i1 @_ZNK4llvm9MCAsmInfo14usesWindowsCFIEv(ptr noundef nonnull align 8 dereferenceable(484) %0) #1 comdat align 2 {
  %2 = alloca ptr, align 8
  store ptr %0, ptr %2, align 8
  %3 = load ptr, ptr %2, align 8
  %4 = getelementptr inbounds nuw %"class.llvm::MCAsmInfo", ptr %3, i32 0, i32 98
  %5 = load i32, ptr %4, align 4
  %6 = icmp eq i32 %5, 4
  br i1 %6, label %7, label %17

7:                                                ; preds = %1
  %8 = getelementptr inbounds nuw %"class.llvm::MCAsmInfo", ptr %3, i32 0, i32 101
  %9 = load i32, ptr %8, align 4
  %10 = icmp ne i32 %9, 0
  br i1 %10, label %11, label %15

11:                                               ; preds = %7
  %12 = getelementptr inbounds nuw %"class.llvm::MCAsmInfo", ptr %3, i32 0, i32 101
  %13 = load i32, ptr %12, align 4
  %14 = icmp ne i32 %13, 6
  br label %15

15:                                               ; preds = %11, %7
  %16 = phi i1 [ false, %7 ], [ %14, %11 ]
  br label %17

17:                                               ; preds = %15, %1
  %18 = phi i1 [ false, %1 ], [ %16, %15 ]
  ret i1 %18
}

; Function Attrs: mustprogress nounwind uwtable
define linkonce_odr hidden noundef ptr @_ZNK4llvm13TargetMachine12getMCAsmInfoEv(ptr noundef nonnull align 8 dereferenceable(1232) %0) #1 comdat align 2 {
  %2 = alloca ptr, align 8
  store ptr %0, ptr %2, align 8
  %3 = load ptr, ptr %2, align 8
  %4 = getelementptr inbounds nuw %"class.llvm::TargetMachine", ptr %3, i32 0, i32 10
  %5 = call noundef ptr @_ZNKSt10unique_ptrIKN4llvm9MCAsmInfoESt14default_deleteIS2_EE3getEv(ptr noundef nonnull align 8 dereferenceable(8) %4) #13
  ret ptr %5
}

; Function Attrs: mustprogress nounwind uwtable
define linkonce_odr hidden noundef nonnull align 8 dereferenceable(1232) ptr @_ZNK4llvm15MachineFunction9getTargetEv(ptr noundef nonnull align 8 dereferenceable(1041) %0) #1 comdat align 2 {
  %2 = alloca ptr, align 8
  store ptr %0, ptr %2, align 8
  %3 = load ptr, ptr %2, align 8
  %4 = getelementptr inbounds nuw %"class.llvm::MachineFunction", ptr %3, i32 0, i32 1
  %5 = load ptr, ptr %4, align 8
  ret ptr %5
}

; Function Attrs: mustprogress nounwind uwtable
define dso_local noundef zeroext i1 @_ZNK4llvm16X86FrameLowering15isWin64PrologueERKNS_15MachineFunctionE(ptr noundef nonnull align 8 dereferenceable(60) %0, ptr noundef nonnull align 8 dereferenceable(1041) %1) #1 align 2 {
  %3 = alloca ptr, align 8
  %4 = alloca ptr, align 8
  store ptr %0, ptr %3, align 8
  store ptr %1, ptr %4, align 8
  %5 = load ptr, ptr %4, align 8
  %6 = call noundef nonnull align 8 dereferenceable(1232) ptr @_ZNK4llvm15MachineFunction9getTargetEv(ptr noundef nonnull align 8 dereferenceable(1041) %5)
  %7 = call noundef ptr @_ZNK4llvm13TargetMachine12getMCAsmInfoEv(ptr noundef nonnull align 8 dereferenceable(1232) %6)
  %8 = call noundef zeroext i1 @_ZNK4llvm9MCAsmInfo14usesWindowsCFIEv(ptr noundef nonnull align 8 dereferenceable(484) %7)
  ret i1 %8
}