; Function Attrs: mustprogress nofree norecurse nosync nounwind willreturn memory(read, inaccessiblemem: none) uwtable
define dso_local noundef zeroext i1 @_ZNK4llvm16X86FrameLowering15isWin64PrologueERKNS_15MachineFunctionE(ptr nocapture noundef nonnull readnone align 8 dereferenceable(60) %0, ptr nocapture noundef nonnull readonly align 8 dereferenceable(1041) %1) local_unnamed_addr #1 align 2 {
  %3 = getelementptr inbounds nuw i8, ptr %1, i64 8
  %4 = load ptr, ptr %3, align 8
  %5 = getelementptr inbounds nuw i8, ptr %4, i64 672
  %6 = load ptr, ptr %5, align 8
  %7 = getelementptr inbounds nuw i8, ptr %6, i64 412
  %8 = load i32, ptr %7, align 4
  %9 = icmp eq i32 %8, 4
  br i1 %9, label %10, label %_ZNK4llvm9MCAsmInfo14usesWindowsCFIEv.exit

10:                                               ; preds = %2
  %11 = getelementptr inbounds nuw i8, ptr %6, i64 420
  %12 = load i32, ptr %11, align 4
  %.not.i = icmp ne i32 %12, 0
  %13 = icmp ne i32 %12, 6
  %spec.select.i = and i1 %.not.i, %13
  br label %_ZNK4llvm9MCAsmInfo14usesWindowsCFIEv.exit

_ZNK4llvm9MCAsmInfo14usesWindowsCFIEv.exit:       ; preds = %2, %10
  %14 = phi i1 [ false, %2 ], [ %spec.select.i, %10 ]
  ret i1 %14
}